; Function Attrs: mustprogress nofree nounwind willreturn memory(read, inaccessiblemem: none) uwtable
define internal noundef i32 @_ZN12_GLOBAL__N_16MyItem20CompareWithSortSpecsEPKvS2_(ptr noundef readonly captures(none) %0, ptr noundef readonly captures(none) %1) #26 align 2 {
  %3 = load ptr, ptr @_ZN12_GLOBAL__N_16MyItem20s_current_sort_specsE, align 8, !tbaa !364
  %4 = getelementptr inbounds nuw i8, ptr %3, i64 8
  %5 = load i32, ptr %4, align 8, !tbaa !499
  %.not39 = icmp sgt i32 %5, 0
  br i1 %.not39, label %.lr.ph, label %._crit_edge

.lr.ph:                                           ; preds = %2
  %6 = load ptr, ptr %3, align 8, !tbaa !500
  %7 = getelementptr inbounds nuw i8, ptr %0, i64 8
  %8 = getelementptr inbounds nuw i8, ptr %1, i64 8
  %9 = getelementptr inbounds nuw i8, ptr %0, i64 16
  %10 = getelementptr inbounds nuw i8, ptr %1, i64 16
  %wide.trip.count = zext nneg i32 %5 to i64
  br label %11

11:                                               ; preds = %.lr.ph, %.thread29
  %indvars.iv = phi i64 [ 0, %.lr.ph ], [ %indvars.iv.next, %.thread29 ]
  %12 = getelementptr inbounds nuw %struct.ImGuiTableColumnSortSpecs, ptr %6, i64 %indvars.iv
  %13 = load i32, ptr %12, align 4, !tbaa !501
  switch i32 %13, label %.thread29 [
    i32 0, label %14
    i32 1, label %18
    i32 3, label %22
    i32 4, label %26
  ]

14:                                               ; preds = %11
  %15 = load i32, ptr %0, align 8, !tbaa !356
  %16 = load i32, ptr %1, align 8, !tbaa !356
  %17 = sub nsw i32 %15, %16
  br label %30

18:                                               ; preds = %11
  %19 = load ptr, ptr %7, align 8, !tbaa !358
  %20 = load ptr, ptr %8, align 8, !tbaa !358
  %21 = tail call i32 @strcmp(ptr noundef nonnull dereferenceable(1) %19, ptr noundef nonnull dereferenceable(1) %20) #34
  br label %30

22:                                               ; preds = %11
  %23 = load i32, ptr %9, align 8, !tbaa !359
  %24 = load i32, ptr %10, align 8, !tbaa !359
  %25 = sub nsw i32 %23, %24
  br label %30

26:                                               ; preds = %11
  %27 = load ptr, ptr %7, align 8, !tbaa !358
  %28 = load ptr, ptr %8, align 8, !tbaa !358
  %29 = tail call i32 @strcmp(ptr noundef nonnull dereferenceable(1) %27, ptr noundef nonnull dereferenceable(1) %28) #34
  br label %30

30:                                               ; preds = %26, %22, %18, %14
  %.0 = phi i32 [ %29, %26 ], [ %25, %22 ], [ %21, %18 ], [ %17, %14 ]
  %31 = icmp sgt i32 %.0, 0
  br i1 %31, label %32, label %37

32:                                               ; preds = %30
  %33 = getelementptr inbounds nuw i8, ptr %12, i64 8
  %34 = load i8, ptr %33, align 4, !tbaa !504
  %35 = icmp eq i8 %34, 1
  %36 = select i1 %35, i32 1, i32 -1
  br label %.thread36

37:                                               ; preds = %30
  %38 = icmp slt i32 %.0, 0
  br i1 %38, label %39, label %.thread29

39:                                               ; preds = %37
  %40 = getelementptr inbounds nuw i8, ptr %12, i64 8
  %41 = load i8, ptr %40, align 4, !tbaa !504
  %42 = icmp eq i8 %41, 1
  %43 = select i1 %42, i32 -1, i32 1
  br label %.thread36

.thread29:                                        ; preds = %11, %37
  %indvars.iv.next = add nuw nsw i64 %indvars.iv, 1
  %exitcond.not = icmp eq i64 %indvars.iv.next, %wide.trip.count
  br i1 %exitcond.not, label %._crit_edge, label %11, !llvm.loop !505

._crit_edge:                                      ; preds = %.thread29, %2
  %44 = load i32, ptr %0, align 8, !tbaa !356
  %45 = load i32, ptr %1, align 8, !tbaa !356
  %46 = sub nsw i32 %44, %45
  br label %.thread36

.thread36:                                        ; preds = %39, %32, %._crit_edge
  %.3 = phi i32 [ %46, %._crit_edge ], [ %43, %39 ], [ %36, %32 ]
  ret i32 %.3
}